; Function Attrs: nounwind uwtable
define internal range(i32 0, 2) i32 @test_x509_crl_tbs_cache() #1 {
  %1 = alloca ptr, align 8
  call void @llvm.lifetime.start.p0(i64 8, ptr nonnull %1) #4
  store ptr @crldata, ptr %1, align 8, !tbaa !4
  %2 = call ptr @d2i_X509_CRL(ptr noundef null, ptr noundef nonnull %1, i64 noundef 142) #4
  %3 = call i32 @test_ptr(ptr noundef nonnull @.str.14, i32 noundef 116, ptr noundef nonnull @.str.27, ptr noundef %2) #4
  %.not = icmp eq i32 %3, 0
  br i1 %.not, label %15, label %4

4:                                                ; preds = %0
  %5 = load ptr, ptr @privkey, align 8, !tbaa !9
  %6 = load ptr, ptr @signmd, align 8, !tbaa !13
  %7 = call i32 @X509_CRL_sign(ptr noundef %2, ptr noundef %5, ptr noundef %6) #4
  %8 = call i32 @test_int_gt(ptr noundef nonnull @.str.14, i32 noundef 117, ptr noundef nonnull @.str.28, ptr noundef nonnull @.str.24, i32 noundef %7, i32 noundef 0) #4
  %.not3 = icmp eq i32 %8, 0
  br i1 %.not3, label %15, label %9

9:                                                ; preds = %4
  %10 = load ptr, ptr @pubkey, align 8, !tbaa !9
  %11 = call i32 @X509_CRL_verify(ptr noundef %2, ptr noundef %10) #4
  %12 = call i32 @test_int_eq(ptr noundef nonnull @.str.14, i32 noundef 118, ptr noundef nonnull @.str.29, ptr noundef nonnull @.str.26, i32 noundef %11, i32 noundef 1) #4
  %13 = icmp ne i32 %12, 0
  %14 = zext i1 %13 to i32
  br label %15

15:                                               ; preds = %9, %4, %0
  %16 = phi i32 [ 0, %4 ], [ 0, %0 ], [ %14, %9 ]
  call void @X509_CRL_free(ptr noundef %2) #4
  call void @llvm.lifetime.end.p0(i64 8, ptr nonnull %1) #4
  ret i32 %16
}